target datalayout = "e-m:e-p270:32:32-p271:32:32-p272:64:64-i64:64-i128:128-f80:128-n8:16:32:64-S128"
target triple = "x86_64-unknown-linux-gnu"

%"class.icu_75::RBBIRuleBuilder" = type { ptr, ptr, ptr, ptr, ptr, %"class.icu_75::UnicodeString", ptr, ptr, ptr, ptr, ptr, ptr, i8, i8, ptr, ptr, ptr, ptr }
%"class.icu_75::UnicodeString" = type { %"class.icu_75::Replaceable", %"union.icu_75::UnicodeString::StackBufferOrFields" }
%"class.icu_75::Replaceable" = type { %"class.icu_75::UObject" }
%"class.icu_75::UObject" = type { ptr }
%"union.icu_75::UnicodeString::StackBufferOrFields" = type { %struct.anon.0, [32 x i8] }
%struct.anon.0 = type { i16, i32, i32, ptr }
%"struct.std::pair" = type { i32, i32 }

; Function Attrs: mustprogress nounwind uwtable
define linkonce_odr void @_ZNSt4pairIiiEC2IiiTnNSt9enable_ifIXaaclsr5_PCCPE22_MoveConstructiblePairIT_T0_EEclsr5_PCCPE30_ImplicitlyMoveConvertiblePairIS3_S4_EEEbE4typeELb1EEEOS3_OS4_(ptr noundef nonnull align 4 dereferenceable(8) %this, ptr noundef nonnull align 4 dereferenceable(4) %__x, ptr noundef nonnull align 4 dereferenceable(4) %__y) unnamed_addr #3 comdat align 2 {
entry:
  %this.addr = alloca ptr, align 8
  %__x.addr = alloca ptr, align 8
  %__y.addr = alloca ptr, align 8
  store ptr %this, ptr %this.addr, align 8
  store ptr %__x, ptr %__x.addr, align 8
  store ptr %__y, ptr %__y.addr, align 8
  %this1 = load ptr, ptr %this.addr, align 8
  %first = getelementptr inbounds %"struct.std::pair", ptr %this1, i32 0, i32 0
  %0 = load ptr, ptr %__x.addr, align 8
  %1 = load i32, ptr %0, align 4
  store i32 %1, ptr %first, align 4
  %second = getelementptr inbounds %"struct.std::pair", ptr %this1, i32 0, i32 1
  %2 = load ptr, ptr %__y.addr, align 8
  %3 = load i32, ptr %2, align 4
  store i32 %3, ptr %second, align 4
  ret void
}

; Function Attrs: mustprogress uwtable
define void @_ZN6icu_7515RBBIRuleBuilder14optimizeTablesEv(ptr noundef nonnull align 8 dereferenceable(192) %this) #0 align 2 {
entry:
  %this.addr = alloca ptr, align 8
  %didSomething = alloca i8, align 1
  %duplPair = alloca %"struct.std::pair", align 4
  %ref.tmp = alloca i32, align 4
  %ref.tmp2 = alloca i32, align 4
  %agg.tmp = alloca %"struct.std::pair", align 4
  store ptr %this, ptr %this.addr, align 8
  %this1 = load ptr, ptr %this.addr, align 8
  br label %do.body

do.body:                                          ; preds = %do.cond, %entry
  store i8 0, ptr %didSomething, align 1
  store i32 3, ptr %ref.tmp, align 4
  store i32 0, ptr %ref.tmp2, align 4
  call void @_ZNSt4pairIiiEC2IiiTnNSt9enable_ifIXaaclsr5_PCCPE22_MoveConstructiblePairIT_T0_EEclsr5_PCCPE30_ImplicitlyMoveConvertiblePairIS3_S4_EEEbE4typeELb1EEEOS3_OS4_(ptr noundef nonnull align 4 dereferenceable(8) %duplPair, ptr noundef nonnull align 4 dereferenceable(4) %ref.tmp, ptr noundef nonnull align 4 dereferenceable(4) %ref.tmp2)
  br label %while.cond

while.cond:                                       ; preds = %while.body, %do.body
  %fForwardTable = getelementptr inbounds %"class.icu_75::RBBIRuleBuilder", ptr %this1, i32 0, i32 16
  %0 = load ptr, ptr %fForwardTable, align 8
  %call = call noundef zeroext i1 @_ZN6icu_7516RBBITableBuilder21findDuplCharClassFromEPSt4pairIiiE(ptr noundef nonnull align 8 dereferenceable(52) %0, ptr noundef %duplPair)
  br i1 %call, label %while.body, label %while.end

while.body:                                       ; preds = %while.cond
  %fSetBuilder = getelementptr inbounds %"class.icu_75::RBBIRuleBuilder", ptr %this1, i32 0, i32 14
  %1 = load ptr, ptr %fSetBuilder, align 8
  call void @llvm.memcpy.p0.p0.i64(ptr align 4 %agg.tmp, ptr align 4 %duplPair, i64 8, i1 false)
  %2 = load i64, ptr %agg.tmp, align 4
  call void @_ZN6icu_7514RBBISetBuilder15mergeCategoriesESt4pairIiiE(ptr noundef nonnull align 8 dereferenceable(53) %1, i64 %2)
  %fForwardTable3 = getelementptr inbounds %"class.icu_75::RBBIRuleBuilder", ptr %this1, i32 0, i32 16
  %3 = load ptr, ptr %fForwardTable3, align 8
  %second = getelementptr inbounds %"struct.std::pair", ptr %duplPair, i32 0, i32 1
  %4 = load i32, ptr %second, align 4
  call void @_ZN6icu_7516RBBITableBuilder12removeColumnEi(ptr noundef nonnull align 8 dereferenceable(52) %3, i32 noundef %4)
  store i8 1, ptr %didSomething, align 1
  br label %while.cond, !llvm.loop !7

while.end:                                        ; preds = %while.cond
  br label %while.cond4

while.cond4:                                      ; preds = %while.body7, %while.end
  %fForwardTable5 = getelementptr inbounds %"class.icu_75::RBBIRuleBuilder", ptr %this1, i32 0, i32 16
  %5 = load ptr, ptr %fForwardTable5, align 8
  %call6 = call noundef i32 @_ZN6icu_7516RBBITableBuilder21removeDuplicateStatesEv(ptr noundef nonnull align 8 dereferenceable(52) %5)
  %cmp = icmp sgt i32 %call6, 0
  br i1 %cmp, label %while.body7, label %while.end8

while.body7:                                      ; preds = %while.cond4
  store i8 1, ptr %didSomething, align 1
  br label %while.cond4, !llvm.loop !8

while.end8:                                       ; preds = %while.cond4
  br label %do.cond

do.cond:                                          ; preds = %while.end8
  %6 = load i8, ptr %didSomething, align 1
  %tobool = trunc i8 %6 to i1
  br i1 %tobool, label %do.body, label %do.end, !llvm.loop !9

do.end:                                           ; preds = %do.cond
  ret void
}