; Function Attrs: mustprogress uwtable
define void @_ZN6icu_7515RBBIRuleBuilder14optimizeTablesEv(ptr nocapture noundef nonnull readonly align 8 dereferenceable(192) %this) local_unnamed_addr #0 align 2 {
entry:
  %duplPair = alloca %"struct.std::pair", align 8
  %second.i = getelementptr inbounds i8, ptr %duplPair, i64 4
  %fForwardTable = getelementptr inbounds i8, ptr %this, i64 176
  %fSetBuilder = getelementptr inbounds i8, ptr %this, i64 160
  br label %do.body

do.body:                                          ; preds = %do.cond, %entry
  store i32 3, ptr %duplPair, align 8
  store i32 0, ptr %second.i, align 4
  %0 = load ptr, ptr %fForwardTable, align 8
  %call1 = call noundef zeroext i1 @_ZN6icu_7516RBBITableBuilder21findDuplCharClassFromEPSt4pairIiiE(ptr noundef nonnull align 8 dereferenceable(52) %0, ptr noundef nonnull %duplPair)
  br i1 %call1, label %while.body, label %while.cond4.preheader

while.body:                                       ; preds = %do.body, %while.body
  %1 = load ptr, ptr %fSetBuilder, align 8
  %agg.tmp.sroa.0.0.copyload = load i64, ptr %duplPair, align 8
  call void @_ZN6icu_7514RBBISetBuilder15mergeCategoriesESt4pairIiiE(ptr noundef nonnull align 8 dereferenceable(53) %1, i64 %agg.tmp.sroa.0.0.copyload)
  %2 = load ptr, ptr %fForwardTable, align 8
  %3 = load i32, ptr %second.i, align 4
  call void @_ZN6icu_7516RBBITableBuilder12removeColumnEi(ptr noundef nonnull align 8 dereferenceable(52) %2, i32 noundef %3)
  %4 = load ptr, ptr %fForwardTable, align 8
  %call = call noundef zeroext i1 @_ZN6icu_7516RBBITableBuilder21findDuplCharClassFromEPSt4pairIiiE(ptr noundef nonnull align 8 dereferenceable(52) %4, ptr noundef nonnull %duplPair)
  br i1 %call, label %while.body, label %while.cond4.preheader, !llvm.loop !7

while.cond4.preheader:                            ; preds = %while.body, %do.body
  br label %while.cond4

while.cond4:                                      ; preds = %while.cond4.preheader, %while.cond4
  %didSomething.1 = phi i1 [ true, %while.cond4 ], [ %call1, %while.cond4.preheader ]
  %5 = load ptr, ptr %fForwardTable, align 8
  %call6 = call noundef i32 @_ZN6icu_7516RBBITableBuilder21removeDuplicateStatesEv(ptr noundef nonnull align 8 dereferenceable(52) %5)
  %cmp = icmp sgt i32 %call6, 0
  br i1 %cmp, label %while.cond4, label %do.cond, !llvm.loop !8

do.cond:                                          ; preds = %while.cond4
  br i1 %didSomething.1, label %do.body, label %do.end, !llvm.loop !9

do.end:                                           ; preds = %do.cond
  ret void
}